target datalayout = "e-m:e-p270:32:32-p271:32:32-p272:64:64-i64:64-i128:128-f80:128-n8:16:32:64-S128"
target triple = "x86_64-pc-linux-gnu"

@.str.171 = private unnamed_addr constant [24 x i8] c"11 4 22 44 44 22 444444\00", align 1
@.str.172 = private unnamed_addr constant [47 x i8] c"11 4 22 44 44 22 444444 4444 4 444 444 444 444\00", align 1

; Function Attrs: nounwind uwtable
define internal i32 @stbi_write_bmp_core(ptr noundef %0, i32 noundef %1, i32 noundef %2, i32 noundef %3, ptr noundef %4) #0 {
  %6 = alloca i32, align 4
  %7 = alloca ptr, align 8
  %8 = alloca i32, align 4
  %9 = alloca i32, align 4
  %10 = alloca i32, align 4
  %11 = alloca ptr, align 8
  %12 = alloca i32, align 4
  store ptr %0, ptr %7, align 8
  store i32 %1, ptr %8, align 4
  store i32 %2, ptr %9, align 4
  store i32 %3, ptr %10, align 4
  store ptr %4, ptr %11, align 8
  %13 = load i32, ptr %10, align 4
  %14 = icmp ne i32 %13, 4
  br i1 %14, label %15, label %36

15:                                               ; preds = %5
  call void @llvm.lifetime.start.p0(i64 4, ptr %12) #19
  %16 = load i32, ptr %8, align 4
  %17 = sub nsw i32 0, %16
  %18 = mul nsw i32 %17, 3
  %19 = and i32 %18, 3
  store i32 %19, ptr %12, align 4
  %20 = load ptr, ptr %7, align 8
  %21 = load i32, ptr %8, align 4
  %22 = load i32, ptr %9, align 4
  %23 = load i32, ptr %10, align 4
  %24 = load ptr, ptr %11, align 8
  %25 = load i32, ptr %12, align 4
  %26 = load i32, ptr %8, align 4
  %27 = mul nsw i32 %26, 3
  %28 = load i32, ptr %12, align 4
  %29 = add nsw i32 %27, %28
  %30 = load i32, ptr %9, align 4
  %31 = mul nsw i32 %29, %30
  %32 = add nsw i32 54, %31
  %33 = load i32, ptr %8, align 4
  %34 = load i32, ptr %9, align 4
  %35 = call i32 (ptr, i32, i32, i32, i32, i32, i32, ptr, i32, i32, ptr, ...) @stbiw__outfile(ptr noundef %20, i32 noundef -1, i32 noundef -1, i32 noundef %21, i32 noundef %22, i32 noundef %23, i32 noundef 1, ptr noundef %24, i32 noundef 0, i32 noundef %25, ptr noundef @.str.171, i32 noundef 66, i32 noundef 77, i32 noundef %32, i32 noundef 0, i32 noundef 0, i32 noundef 54, i32 noundef 40, i32 noundef %33, i32 noundef %34, i32 noundef 1, i32 noundef 24, i32 noundef 0, i32 noundef 0, i32 noundef 0, i32 noundef 0, i32 noundef 0, i32 noundef 0)
  store i32 %35, ptr %6, align 4
  call void @llvm.lifetime.end.p0(i64 4, ptr %12) #19
  br label %50

36:                                               ; preds = %5
  %37 = load ptr, ptr %7, align 8
  %38 = load i32, ptr %8, align 4
  %39 = load i32, ptr %9, align 4
  %40 = load i32, ptr %10, align 4
  %41 = load ptr, ptr %11, align 8
  %42 = load i32, ptr %8, align 4
  %43 = load i32, ptr %9, align 4
  %44 = mul nsw i32 %42, %43
  %45 = mul nsw i32 %44, 4
  %46 = add nsw i32 122, %45
  %47 = load i32, ptr %8, align 4
  %48 = load i32, ptr %9, align 4
  %49 = call i32 (ptr, i32, i32, i32, i32, i32, i32, ptr, i32, i32, ptr, ...) @stbiw__outfile(ptr noundef %37, i32 noundef -1, i32 noundef -1, i32 noundef %38, i32 noundef %39, i32 noundef %40, i32 noundef 1, ptr noundef %41, i32 noundef 1, i32 noundef 0, ptr noundef @.str.172, i32 noundef 66, i32 noundef 77, i32 noundef %46, i32 noundef 0, i32 noundef 0, i32 noundef 122, i32 noundef 108, i32 noundef %47, i32 noundef %48, i32 noundef 1, i32 noundef 32, i32 noundef 3, i32 noundef 0, i32 noundef 0, i32 noundef 0, i32 noundef 0, i32 noundef 0, i32 noundef 16711680, i32 noundef 65280, i32 noundef 255, i32 noundef -16777216, i32 noundef 0, i32 noundef 0, i32 noundef 0, i32 noundef 0, i32 noundef 0, i32 noundef 0, i32 noundef 0, i32 noundef 0, i32 noundef 0, i32 noundef 0, i32 noundef 0, i32 noundef 0, i32 noundef 0)
  store i32 %49, ptr %6, align 4
  br label %50

50:                                               ; preds = %36, %15
  %51 = load i32, ptr %6, align 4
  ret i32 %51
}