; Function Attrs: nounwind uwtable
define internal fastcc range(i32 0, 2) i32 @stbi_write_bmp_core(ptr noundef nonnull %0, i32 noundef %1, i32 noundef %2, i32 noundef %3, ptr noundef readonly captures(none) %4) unnamed_addr #4 {
  %.not = icmp eq i32 %3, 4
  br i1 %.not, label %13, label %6

6:                                                ; preds = %5
  %7 = and i32 %1, 3
  %8 = mul nsw i32 %1, 3
  %9 = add nsw i32 %8, %7
  %10 = mul nsw i32 %9, %2
  %11 = add nsw i32 %10, 54
  %12 = tail call i32 (ptr, i32, i32, i32, i32, i32, i32, ptr, i32, i32, ptr, ...) @stbiw__outfile(ptr noundef %0, i32 poison, i32 poison, i32 noundef %1, i32 noundef %2, i32 noundef %3, i32 noundef 1, ptr noundef %4, i32 noundef 0, i32 noundef %7, ptr noundef nonnull @.str.171, i32 noundef 66, i32 noundef 77, i32 noundef %11, i32 noundef 0, i32 noundef 0, i32 noundef 54, i32 noundef 40, i32 noundef %1, i32 noundef %2, i32 noundef 1, i32 noundef 24, i32 noundef 0, i32 noundef 0, i32 noundef 0, i32 noundef 0, i32 noundef 0, i32 noundef 0)
  br label %18

13:                                               ; preds = %5
  %14 = shl i32 %1, 2
  %15 = mul i32 %14, %2
  %16 = add nsw i32 %15, 122
  %17 = tail call i32 (ptr, i32, i32, i32, i32, i32, i32, ptr, i32, i32, ptr, ...) @stbiw__outfile(ptr noundef %0, i32 poison, i32 poison, i32 noundef %1, i32 noundef %2, i32 noundef 4, i32 noundef 1, ptr noundef %4, i32 noundef 1, i32 noundef 0, ptr noundef nonnull @.str.172, i32 noundef 66, i32 noundef 77, i32 noundef %16, i32 noundef 0, i32 noundef 0, i32 noundef 122, i32 noundef 108, i32 noundef %1, i32 noundef %2, i32 noundef 1, i32 noundef 32, i32 noundef 3, i32 noundef 0, i32 noundef 0, i32 noundef 0, i32 noundef 0, i32 noundef 0, i32 noundef 16711680, i32 noundef 65280, i32 noundef 255, i32 noundef -16777216, i32 noundef 0, i32 noundef 0, i32 noundef 0, i32 noundef 0, i32 noundef 0, i32 noundef 0, i32 noundef 0, i32 noundef 0, i32 noundef 0, i32 noundef 0, i32 noundef 0, i32 noundef 0, i32 noundef 0)
  br label %18

18:                                               ; preds = %13, %6
  %.0 = phi i32 [ %12, %6 ], [ %17, %13 ]
  ret i32 %.0
}